; Function Attrs: mustprogress uwtable
define hidden noundef zeroext i1 @_ZN4cvc58internal6theory2bv8TheoryBV19needsEqualityEngineERNS1_11EeSetupInfoE(ptr noundef nonnull align 8 dereferenceable(3808) %this, ptr noundef nonnull align 8 dereferenceable(45) %esi) unnamed_addr #3 align 2 {
entry:
  %d_internal = getelementptr inbounds i8, ptr %this, i64 408
  %0 = load ptr, ptr %d_internal, align 8
  %vtable = load ptr, ptr %0, align 8
  %vfn = getelementptr inbounds i8, ptr %vtable, i64 16
  %1 = load ptr, ptr %vfn, align 8
  %call2 = tail call noundef zeroext i1 %1(ptr noundef nonnull align 8 dereferenceable(32) %0, ptr noundef nonnull align 8 dereferenceable(45) %esi)
  %2 = load ptr, ptr %esi, align 8
  %cmp = icmp eq ptr %2, null
  %or.cond = select i1 %call2, i1 %cmp, i1 false
  br i1 %or.cond, label %if.then, label %if.end

if.then:                                          ; preds = %entry
  %d_notify3 = getelementptr inbounds i8, ptr %this, i64 3680
  store ptr %d_notify3, ptr %esi, align 8
  %d_name = getelementptr inbounds i8, ptr %esi, i64 8
  %call5 = tail call noundef nonnull align 8 dereferenceable(32) ptr @_ZNSt7__cxx1112basic_stringIcSt11char_traitsIcESaIcEEaSEPKc(ptr noundef nonnull align 8 dereferenceable(32) %d_name, ptr noundef nonnull @.str.6)
  br label %if.end

if.end:                                           ; preds = %if.then, %entry
  ret i1 %call2
}